target datalayout = "e-m:e-p270:32:32-p271:32:32-p272:64:64-i64:64-i128:128-f80:128-n8:16:32:64-S128"
target triple = "x86_64-pc-linux-gnu"

%struct.AVCodecParser = type { [7 x i32], i32, ptr, ptr, ptr, ptr }
%struct.AVCodecParserContext = type { ptr, ptr, i64, i64, i64, i32, i32, i64, i64, i64, i64, i32, i32, [4 x i64], [4 x i64], [4 x i64], i32, i64, [4 x i64], i32, i32, i32, i32, [4 x i64], i64, i64, i32, i32, i32, i32, i32, i32, i32, i32, i32 }
%struct.AACAC3ParseContext = type { %struct.ParseContext, i32, ptr, ptr, i32, i64, i32, i32 }
%struct.ParseContext = type { ptr, i32, i32, i32, i32, i32, i32, i32, i64 }
%struct.AACADTSHeaderInfo = type { i32, i32, i32, i8, i8, i8, i8, i8, i32 }

@ff_aac_parser = constant %struct.AVCodecParser { [7 x i32] [i32 86018, i32 0, i32 0, i32 0, i32 0, i32 0, i32 0], i32 96, ptr @aac_parse_init, ptr @ff_aac_ac3_parse, ptr @ff_parse_close, ptr null }, align 8

; Function Attrs: cold nounwind optsize uwtable
define internal i32 @aac_parse_init(ptr noundef %0) #0 {
  %2 = alloca ptr, align 8
  %3 = alloca ptr, align 8
  store ptr %0, ptr %2, align 8, !tbaa !4
  call void @llvm.lifetime.start.p0(i64 8, ptr %3) #6
  %4 = load ptr, ptr %2, align 8, !tbaa !4
  %5 = getelementptr inbounds nuw %struct.AVCodecParserContext, ptr %4, i32 0, i32 0
  %6 = load ptr, ptr %5, align 8, !tbaa !9
  store ptr %6, ptr %3, align 8, !tbaa !14
  %7 = load ptr, ptr %3, align 8, !tbaa !14
  %8 = getelementptr inbounds nuw %struct.AACAC3ParseContext, ptr %7, i32 0, i32 1
  store i32 7, ptr %8, align 8, !tbaa !16
  %9 = load ptr, ptr %3, align 8, !tbaa !14
  %10 = getelementptr inbounds nuw %struct.AACAC3ParseContext, ptr %9, i32 0, i32 2
  store ptr @aac_sync, ptr %10, align 8, !tbaa !21
  call void @llvm.lifetime.end.p0(i64 8, ptr %3) #6
  ret i32 0
}

declare i32 @ff_aac_ac3_parse(ptr noundef, ptr noundef, ptr noundef, ptr noundef, ptr noundef, i32 noundef) #1

declare void @ff_parse_close(ptr noundef) #1

; Function Attrs: nocallback nofree nosync nounwind willreturn memory(argmem: readwrite)
declare void @llvm.lifetime.start.p0(i64 immarg, ptr captures(none)) #2

; Function Attrs: nounwind uwtable
define internal i32 @aac_sync(i64 noundef %0, ptr noundef %1, ptr noundef %2) #3 {
  %4 = alloca i32, align 4
  %5 = alloca i64, align 8
  %6 = alloca ptr, align 8
  %7 = alloca ptr, align 8
  %8 = alloca [72 x i8], align 16
  %9 = alloca %struct.AACADTSHeaderInfo, align 4
  %10 = alloca i32, align 4
  %11 = alloca i32, align 4
  store i64 %0, ptr %5, align 8, !tbaa !22
  store ptr %1, ptr %6, align 8, !tbaa !23
  store ptr %2, ptr %7, align 8, !tbaa !23
  call void @llvm.lifetime.start.p0(i64 72, ptr %8) #6
  call void @llvm.lifetime.start.p0(i64 24, ptr %9) #6
  call void @llvm.lifetime.start.p0(i64 4, ptr %10) #6
  %12 = load i64, ptr %5, align 8, !tbaa !22
  %13 = call i64 @av_bswap64(i64 noundef %12) #7
  %14 = getelementptr inbounds [72 x i8], ptr %8, i64 0, i64 0
  store i64 %13, ptr %14, align 16, !tbaa !24
  %15 = getelementptr inbounds [72 x i8], ptr %8, i64 0, i64 0
  %16 = getelementptr inbounds i8, ptr %15, i64 8
  %17 = getelementptr inbounds i8, ptr %16, i64 -7
  %18 = call i32 @ff_adts_header_parse_buf(ptr noundef %17, ptr noundef %9)
  store i32 %18, ptr %10, align 4, !tbaa !25
  %19 = load i32, ptr %10, align 4, !tbaa !25
  %20 = icmp slt i32 %19, 0
  br i1 %20, label %21, label %22

21:                                               ; preds = %3
  store i32 0, ptr %4, align 4
  store i32 1, ptr %11, align 4
  br label %26

22:                                               ; preds = %3
  %23 = load ptr, ptr %6, align 8, !tbaa !23
  store i32 0, ptr %23, align 4, !tbaa !25
  %24 = load ptr, ptr %7, align 8, !tbaa !23
  store i32 1, ptr %24, align 4, !tbaa !25
  %25 = load i32, ptr %10, align 4, !tbaa !25
  store i32 %25, ptr %4, align 4
  store i32 1, ptr %11, align 4
  br label %26

26:                                               ; preds = %22, %21
  call void @llvm.lifetime.end.p0(i64 4, ptr %10) #6
  call void @llvm.lifetime.end.p0(i64 24, ptr %9) #6
  call void @llvm.lifetime.end.p0(i64 72, ptr %8) #6
  %27 = load i32, ptr %4, align 4
  ret i32 %27
}

; Function Attrs: nocallback nofree nosync nounwind willreturn memory(argmem: readwrite)
declare void @llvm.lifetime.end.p0(i64 immarg, ptr captures(none)) #2

; Function Attrs: inlinehint nounwind willreturn memory(none) uwtable
define internal i64 @av_bswap64(i64 noundef %0) #4 {
  %2 = alloca i64, align 8
  store i64 %0, ptr %2, align 8, !tbaa !22
  %3 = load i64, ptr %2, align 8, !tbaa !22
  %4 = trunc i64 %3 to i32
  %5 = call i32 @av_bswap32(i32 noundef %4) #7
  %6 = zext i32 %5 to i64
  %7 = shl i64 %6, 32
  %8 = load i64, ptr %2, align 8, !tbaa !22
  %9 = lshr i64 %8, 32
  %10 = trunc i64 %9 to i32
  %11 = call i32 @av_bswap32(i32 noundef %10) #7
  %12 = zext i32 %11 to i64
  %13 = or i64 %7, %12
  ret i64 %13
}

declare i32 @ff_adts_header_parse_buf(ptr noundef, ptr noundef) #1

; Function Attrs: alwaysinline nounwind willreturn memory(none) uwtable
define internal i32 @av_bswap32(i32 noundef %0) #5 {
  %2 = alloca i32, align 4
  store i32 %0, ptr %2, align 4, !tbaa !25
  %3 = load i32, ptr %2, align 4, !tbaa !25
  %4 = shl i32 %3, 8
  %5 = and i32 %4, 65280
  %6 = load i32, ptr %2, align 4, !tbaa !25
  %7 = lshr i32 %6, 8
  %8 = and i32 %7, 255
  %9 = or i32 %5, %8
  %10 = shl i32 %9, 16
  %11 = load i32, ptr %2, align 4, !tbaa !25
  %12 = lshr i32 %11, 16
  %13 = shl i32 %12, 8
  %14 = and i32 %13, 65280
  %15 = load i32, ptr %2, align 4, !tbaa !25
  %16 = lshr i32 %15, 16
  %17 = lshr i32 %16, 8
  %18 = and i32 %17, 255
  %19 = or i32 %14, %18
  %20 = or i32 %10, %19
  ret i32 %20
}


!llvm.module.flags = !{!0, !1, !2, !3}

!0 = !{i32 1, !"wchar_size", i32 4}
!1 = !{i32 8, !"PIC Level", i32 2}
!2 = !{i32 7, !"uwtable", i32 2}
!3 = !{i32 1, !"override-stack-alignment", i32 16}
!4 = !{!5, !5, i64 0}
!5 = !{!"p1 _ZTS20AVCodecParserContext", !6, i64 0}
!6 = !{!"any pointer", !7, i64 0}
!7 = !{!"omnipotent char", !8, i64 0}
!8 = !{!"Simple C/C++ TBAA"}
!9 = !{!10, !6, i64 0}
!10 = !{!"AVCodecParserContext", !6, i64 0, !11, i64 8, !12, i64 16, !12, i64 24, !12, i64 32, !13, i64 40, !13, i64 44, !12, i64 48, !12, i64 56, !12, i64 64, !12, i64 72, !13, i64 80, !13, i64 84, !7, i64 88, !7, i64 120, !7, i64 152, !13, i64 184, !12, i64 192, !7, i64 200, !13, i64 232, !13, i64 236, !13, i64 240, !13, i64 244, !7, i64 248, !12, i64 280, !12, i64 288, !13, i64 296, !13, i64 300, !13, i64 304, !13, i64 308, !13, i64 312, !13, i64 316, !13, i64 320, !13, i64 324, !13, i64 328}
!11 = !{!"p1 _ZTS13AVCodecParser", !6, i64 0}
!12 = !{!"long", !7, i64 0}
!13 = !{!"int", !7, i64 0}
!14 = !{!15, !15, i64 0}
!15 = !{!"p1 _ZTS18AACAC3ParseContext", !6, i64 0}
!16 = !{!17, !13, i64 48}
!17 = !{!"AACAC3ParseContext", !18, i64 0, !13, i64 48, !6, i64 56, !20, i64 64, !13, i64 72, !12, i64 80, !13, i64 88, !13, i64 92}
!18 = !{!"ParseContext", !19, i64 0, !13, i64 8, !13, i64 12, !13, i64 16, !13, i64 20, !13, i64 24, !13, i64 28, !13, i64 32, !12, i64 40}
!19 = !{!"p1 omnipotent char", !6, i64 0}
!20 = !{!"p1 int", !6, i64 0}
!21 = !{!17, !6, i64 56}
!22 = !{!12, !12, i64 0}
!23 = !{!20, !20, i64 0}
!24 = !{!7, !7, i64 0}
!25 = !{!13, !13, i64 0}
